; ModuleID = '57/2200.c'
source_filename = "57/2200.c"
target datalayout = "e-m:e-p270:32:32-p271:32:32-p272:64:64-i64:64-f80:128-n8:16:32:64-S128"
target triple = "x86_64-pc-linux-gnu"

@.str = private unnamed_addr constant [3 x i8] c"%d\00", align 1
@.str.1 = private unnamed_addr constant [3 x i8] c"%s\00", align 1
@.str.2 = private unnamed_addr constant [3 x i8] c"%c\00", align 1
@.str.3 = private unnamed_addr constant [2 x i8] c"\0A\00", align 1

; Function Attrs: noinline nounwind uwtable
define dso_local i32 @f(i8* %0) #0 {
  %2 = alloca i8*, align 8
  %3 = alloca i32, align 4
  %4 = alloca i32, align 4
  store i8* %0, i8** %2, align 8
  store i32 0, i32* %3, align 4
  %5 = load i8*, i8** %2, align 8
  %6 = call i64 @strlen(i8* %5) #3
  %7 = trunc i64 %6 to i32
  store i32 %7, i32* %4, align 4
  %8 = load i8*, i8** %2, align 8
  %9 = load i32, i32* %4, align 4
  %10 = sub nsw i32 %9, 2
  %11 = sext i32 %10 to i64
  %12 = getelementptr inbounds i8, i8* %8, i64 %11
  %13 = load i8, i8* %12, align 1
  %14 = sext i8 %13 to i32
  %15 = icmp eq i32 %14, 101
  br i1 %15, label %16, label %26

16:                                               ; preds = %1
  %17 = load i8*, i8** %2, align 8
  %18 = load i32, i32* %4, align 4
  %19 = sub nsw i32 %18, 1
  %20 = sext i32 %19 to i64
  %21 = getelementptr inbounds i8, i8* %17, i64 %20
  %22 = load i8, i8* %21, align 1
  %23 = sext i8 %22 to i32
  %24 = icmp eq i32 %23, 114
  br i1 %24, label %25, label %26

25:                                               ; preds = %16
  store i32 2, i32* %3, align 4
  br label %26

26:                                               ; preds = %25, %16, %1
  %27 = load i8*, i8** %2, align 8
  %28 = load i32, i32* %4, align 4
  %29 = sub nsw i32 %28, 2
  %30 = sext i32 %29 to i64
  %31 = getelementptr inbounds i8, i8* %27, i64 %30
  %32 = load i8, i8* %31, align 1
  %33 = sext i8 %32 to i32
  %34 = icmp eq i32 %33, 108
  br i1 %34, label %35, label %45

35:                                               ; preds = %26
  %36 = load i8*, i8** %2, align 8
  %37 = load i32, i32* %4, align 4
  %38 = sub nsw i32 %37, 1
  %39 = sext i32 %38 to i64
  %40 = getelementptr inbounds i8, i8* %36, i64 %39
  %41 = load i8, i8* %40, align 1
  %42 = sext i8 %41 to i32
  %43 = icmp eq i32 %42, 121
  br i1 %43, label %44, label %45

44:                                               ; preds = %35
  store i32 2, i32* %3, align 4
  br label %45

45:                                               ; preds = %44, %35, %26
  %46 = load i8*, i8** %2, align 8
  %47 = load i32, i32* %4, align 4
  %48 = sub nsw i32 %47, 3
  %49 = sext i32 %48 to i64
  %50 = getelementptr inbounds i8, i8* %46, i64 %49
  %51 = load i8, i8* %50, align 1
  %52 = sext i8 %51 to i32
  %53 = icmp eq i32 %52, 105
  br i1 %53, label %54, label %73

54:                                               ; preds = %45
  %55 = load i8*, i8** %2, align 8
  %56 = load i32, i32* %4, align 4
  %57 = sub nsw i32 %56, 2
  %58 = sext i32 %57 to i64
  %59 = getelementptr inbounds i8, i8* %55, i64 %58
  %60 = load i8, i8* %59, align 1
  %61 = sext i8 %60 to i32
  %62 = icmp eq i32 %61, 110
  br i1 %62, label %63, label %73

63:                                               ; preds = %54
  %64 = load i8*, i8** %2, align 8
  %65 = load i32, i32* %4, align 4
  %66 = sub nsw i32 %65, 1
  %67 = sext i32 %66 to i64
  %68 = getelementptr inbounds i8, i8* %64, i64 %67
  %69 = load i8, i8* %68, align 1
  %70 = sext i8 %69 to i32
  %71 = icmp eq i32 %70, 103
  br i1 %71, label %72, label %73

72:                                               ; preds = %63
  store i32 3, i32* %3, align 4
  br label %73

73:                                               ; preds = %72, %63, %54, %45
  %74 = load i32, i32* %3, align 4
  ret i32 %74
}

; Function Attrs: nounwind readonly
declare dso_local i64 @strlen(i8*) #1

; Function Attrs: noinline nounwind uwtable
define dso_local void @main() #0 {
  %1 = alloca i32, align 4
  %2 = alloca i32, align 4
  %3 = alloca i32, align 4
  %4 = alloca i32, align 4
  %5 = alloca [50 x [50 x i8]], align 16
  %6 = call i32 (i8*, ...) @__isoc99_scanf(i8* getelementptr inbounds ([3 x i8], [3 x i8]* @.str, i64 0, i64 0), i32* %1)
  store i32 0, i32* %2, align 4
  br label %7

7:                                                ; preds = %17, %0
  %8 = load i32, i32* %2, align 4
  %9 = load i32, i32* %1, align 4
  %10 = icmp slt i32 %8, %9
  br i1 %10, label %11, label %20

11:                                               ; preds = %7
  %12 = load i32, i32* %2, align 4
  %13 = sext i32 %12 to i64
  %14 = getelementptr inbounds [50 x [50 x i8]], [50 x [50 x i8]]* %5, i64 0, i64 %13
  %15 = getelementptr inbounds [50 x i8], [50 x i8]* %14, i64 0, i64 0
  %16 = call i32 (i8*, ...) @__isoc99_scanf(i8* getelementptr inbounds ([3 x i8], [3 x i8]* @.str.1, i64 0, i64 0), i8* %15)
  br label %17

17:                                               ; preds = %11
  %18 = load i32, i32* %2, align 4
  %19 = add nsw i32 %18, 1
  store i32 %19, i32* %2, align 4
  br label %7

20:                                               ; preds = %7
  store i32 0, i32* %2, align 4
  br label %21

21:                                               ; preds = %88, %20
  %22 = load i32, i32* %2, align 4
  %23 = load i32, i32* %1, align 4
  %24 = icmp slt i32 %22, %23
  br i1 %24, label %25, label %91

25:                                               ; preds = %21
  %26 = load i32, i32* %2, align 4
  %27 = sext i32 %26 to i64
  %28 = getelementptr inbounds [50 x [50 x i8]], [50 x [50 x i8]]* %5, i64 0, i64 %27
  %29 = getelementptr inbounds [50 x i8], [50 x i8]* %28, i64 0, i64 0
  %30 = call i64 @strlen(i8* %29) #3
  %31 = trunc i64 %30 to i32
  store i32 %31, i32* %4, align 4
  %32 = load i32, i32* %2, align 4
  %33 = sext i32 %32 to i64
  %34 = getelementptr inbounds [50 x [50 x i8]], [50 x [50 x i8]]* %5, i64 0, i64 %33
  %35 = getelementptr inbounds [50 x i8], [50 x i8]* %34, i64 0, i64 0
  %36 = call i32 @f(i8* %35)
  %37 = icmp eq i32 %36, 2
  br i1 %37, label %38, label %59

38:                                               ; preds = %25
  store i32 0, i32* %3, align 4
  br label %39

39:                                               ; preds = %54, %38
  %40 = load i32, i32* %3, align 4
  %41 = load i32, i32* %4, align 4
  %42 = sub nsw i32 %41, 2
  %43 = icmp slt i32 %40, %42
  br i1 %43, label %44, label %57

44:                                               ; preds = %39
  %45 = load i32, i32* %2, align 4
  %46 = sext i32 %45 to i64
  %47 = getelementptr inbounds [50 x [50 x i8]], [50 x [50 x i8]]* %5, i64 0, i64 %46
  %48 = load i32, i32* %3, align 4
  %49 = sext i32 %48 to i64
  %50 = getelementptr inbounds [50 x i8], [50 x i8]* %47, i64 0, i64 %49
  %51 = load i8, i8* %50, align 1
  %52 = sext i8 %51 to i32
  %53 = call i32 (i8*, ...) @printf(i8* getelementptr inbounds ([3 x i8], [3 x i8]* @.str.2, i64 0, i64 0), i32 %52)
  br label %54

54:                                               ; preds = %44
  %55 = load i32, i32* %3, align 4
  %56 = add nsw i32 %55, 1
  store i32 %56, i32* %3, align 4
  br label %39

57:                                               ; preds = %39
  %58 = call i32 (i8*, ...) @printf(i8* getelementptr inbounds ([2 x i8], [2 x i8]* @.str.3, i64 0, i64 0))
  br label %59

59:                                               ; preds = %57, %25
  %60 = load i32, i32* %2, align 4
  %61 = sext i32 %60 to i64
  %62 = getelementptr inbounds [50 x [50 x i8]], [50 x [50 x i8]]* %5, i64 0, i64 %61
  %63 = getelementptr inbounds [50 x i8], [50 x i8]* %62, i64 0, i64 0
  %64 = call i32 @f(i8* %63)
  %65 = icmp eq i32 %64, 3
  br i1 %65, label %66, label %87

66:                                               ; preds = %59
  store i32 0, i32* %3, align 4
  br label %67

67:                                               ; preds = %82, %66
  %68 = load i32, i32* %3, align 4
  %69 = load i32, i32* %4, align 4
  %70 = sub nsw i32 %69, 3
  %71 = icmp slt i32 %68, %70
  br i1 %71, label %72, label %85

72:                                               ; preds = %67
  %73 = load i32, i32* %2, align 4
  %74 = sext i32 %73 to i64
  %75 = getelementptr inbounds [50 x [50 x i8]], [50 x [50 x i8]]* %5, i64 0, i64 %74
  %76 = load i32, i32* %3, align 4
  %77 = sext i32 %76 to i64
  %78 = getelementptr inbounds [50 x i8], [50 x i8]* %75, i64 0, i64 %77
  %79 = load i8, i8* %78, align 1
  %80 = sext i8 %79 to i32
  %81 = call i32 (i8*, ...) @printf(i8* getelementptr inbounds ([3 x i8], [3 x i8]* @.str.2, i64 0, i64 0), i32 %80)
  br label %82

82:                                               ; preds = %72
  %83 = load i32, i32* %3, align 4
  %84 = add nsw i32 %83, 1
  store i32 %84, i32* %3, align 4
  br label %67

85:                                               ; preds = %67
  %86 = call i32 (i8*, ...) @printf(i8* getelementptr inbounds ([2 x i8], [2 x i8]* @.str.3, i64 0, i64 0))
  br label %87

87:                                               ; preds = %85, %59
  br label %88

88:                                               ; preds = %87
  %89 = load i32, i32* %2, align 4
  %90 = add nsw i32 %89, 1
  store i32 %90, i32* %2, align 4
  br label %21

91:                                               ; preds = %21
  ret void
}

declare dso_local i32 @__isoc99_scanf(i8*, ...) #2

declare dso_local i32 @printf(i8*, ...) #2


!llvm.module.flags = !{!0}
!llvm.ident = !{!1}

!0 = !{i32 1, !"wchar_size", i32 4}
!1 = !{!"clang version 10.0.0-4ubuntu1 "}
